target datalayout = "e-m:e-p270:32:32-p271:32:32-p272:64:64-i64:64-i128:128-f80:128-n8:16:32:64-S128"
target triple = "x86_64-pc-linux-gnu"

%struct.construct_data_st = type { ptr, ptr, i32, i32, ptr, ptr }
%struct.ossl_method_construct_method_st = type { ptr, ptr, ptr, ptr, ptr, ptr, ptr }

; Function Attrs: nounwind uwtable
define internal i32 @is_temporary_method_store(i32 noundef %0, ptr noundef %1) #0 {
  %3 = alloca i32, align 4
  %4 = alloca ptr, align 8
  %5 = alloca ptr, align 8
  store i32 %0, ptr %3, align 4, !tbaa !8
  store ptr %1, ptr %4, align 8, !tbaa !14
  call void @llvm.lifetime.start.p0(i64 8, ptr %5) #4
  %6 = load ptr, ptr %4, align 8, !tbaa !14
  store ptr %6, ptr %5, align 8, !tbaa !27
  %7 = load i32, ptr %3, align 4, !tbaa !8
  %8 = icmp ne i32 %7, 0
  br i1 %8, label %9, label %15

9:                                                ; preds = %2
  %10 = load ptr, ptr %5, align 8, !tbaa !27
  %11 = getelementptr inbounds nuw %struct.construct_data_st, ptr %10, i32 0, i32 3
  %12 = load i32, ptr %11, align 4, !tbaa !20
  %13 = icmp ne i32 %12, 0
  %14 = xor i1 %13, true
  br label %15

15:                                               ; preds = %9, %2
  %16 = phi i1 [ false, %2 ], [ %14, %9 ]
  %17 = zext i1 %16 to i32
  call void @llvm.lifetime.end.p0(i64 8, ptr %5) #4
  ret i32 %17
}

; Function Attrs: nounwind uwtable
define internal i32 @ossl_method_construct_reserve_store(i32 noundef %0, ptr noundef %1) #0 {
  %3 = alloca i32, align 4
  %4 = alloca i32, align 4
  %5 = alloca ptr, align 8
  %6 = alloca ptr, align 8
  %7 = alloca i32, align 4
  store i32 %0, ptr %4, align 4, !tbaa !8
  store ptr %1, ptr %5, align 8, !tbaa !14
  call void @llvm.lifetime.start.p0(i64 8, ptr %6) #4
  %8 = load ptr, ptr %5, align 8, !tbaa !14
  store ptr %8, ptr %6, align 8, !tbaa !27
  %9 = load i32, ptr %4, align 4, !tbaa !8
  %10 = load ptr, ptr %6, align 8, !tbaa !27
  %11 = call i32 @is_temporary_method_store(i32 noundef %9, ptr noundef %10)
  %12 = icmp ne i32 %11, 0
  br i1 %12, label %13, label %33

13:                                               ; preds = %2
  %14 = load ptr, ptr %6, align 8, !tbaa !27
  %15 = getelementptr inbounds nuw %struct.construct_data_st, ptr %14, i32 0, i32 1
  %16 = load ptr, ptr %15, align 8, !tbaa !17
  %17 = icmp eq ptr %16, null
  br i1 %17, label %18, label %33

18:                                               ; preds = %13
  %19 = load ptr, ptr %6, align 8, !tbaa !27
  %20 = getelementptr inbounds nuw %struct.construct_data_st, ptr %19, i32 0, i32 4
  %21 = load ptr, ptr %20, align 8, !tbaa !21
  %22 = getelementptr inbounds nuw %struct.ossl_method_construct_method_st, ptr %21, i32 0, i32 0
  %23 = load ptr, ptr %22, align 8, !tbaa !29
  %24 = load ptr, ptr %6, align 8, !tbaa !27
  %25 = getelementptr inbounds nuw %struct.construct_data_st, ptr %24, i32 0, i32 5
  %26 = load ptr, ptr %25, align 8, !tbaa !22
  %27 = call ptr %23(ptr noundef %26)
  %28 = load ptr, ptr %6, align 8, !tbaa !27
  %29 = getelementptr inbounds nuw %struct.construct_data_st, ptr %28, i32 0, i32 1
  store ptr %27, ptr %29, align 8, !tbaa !17
  %30 = icmp eq ptr %27, null
  br i1 %30, label %31, label %32

31:                                               ; preds = %18
  store i32 0, ptr %3, align 4
  store i32 1, ptr %7, align 4
  br label %46

32:                                               ; preds = %18
  br label %33

33:                                               ; preds = %32, %13, %2
  %34 = load ptr, ptr %6, align 8, !tbaa !27
  %35 = getelementptr inbounds nuw %struct.construct_data_st, ptr %34, i32 0, i32 4
  %36 = load ptr, ptr %35, align 8, !tbaa !21
  %37 = getelementptr inbounds nuw %struct.ossl_method_construct_method_st, ptr %36, i32 0, i32 1
  %38 = load ptr, ptr %37, align 8, !tbaa !30
  %39 = load ptr, ptr %6, align 8, !tbaa !27
  %40 = getelementptr inbounds nuw %struct.construct_data_st, ptr %39, i32 0, i32 1
  %41 = load ptr, ptr %40, align 8, !tbaa !17
  %42 = load ptr, ptr %6, align 8, !tbaa !27
  %43 = getelementptr inbounds nuw %struct.construct_data_st, ptr %42, i32 0, i32 5
  %44 = load ptr, ptr %43, align 8, !tbaa !22
  %45 = call i32 %38(ptr noundef %41, ptr noundef %44)
  store i32 %45, ptr %3, align 4
  store i32 1, ptr %7, align 4
  br label %46

46:                                               ; preds = %33, %31
  call void @llvm.lifetime.end.p0(i64 8, ptr %6) #4
  %47 = load i32, ptr %3, align 4
  ret i32 %47
}