; Function Attrs: nounwind uwtable
define internal i32 @ossl_method_construct_reserve_store(i32 noundef %0, ptr noundef captures(none) %1) #0 {
  %.not.i = icmp eq i32 %0, 0
  br i1 %.not.i, label %is_temporary_method_store.exit.thread, label %is_temporary_method_store.exit

is_temporary_method_store.exit:                   ; preds = %2
  %3 = getelementptr inbounds nuw i8, ptr %1, i64 20
  %4 = load i32, ptr %3, align 4, !tbaa !14
  %.not2.i.not = icmp eq i32 %4, 0
  br i1 %.not2.i.not, label %5, label %is_temporary_method_store.exit.thread

5:                                                ; preds = %is_temporary_method_store.exit
  %6 = getelementptr inbounds nuw i8, ptr %1, i64 8
  %7 = load ptr, ptr %6, align 8, !tbaa !8
  %8 = icmp eq ptr %7, null
  br i1 %8, label %9, label %is_temporary_method_store.exit.thread

9:                                                ; preds = %5
  %10 = getelementptr inbounds nuw i8, ptr %1, i64 24
  %11 = load ptr, ptr %10, align 8, !tbaa !15
  %12 = load ptr, ptr %11, align 8, !tbaa !21
  %13 = getelementptr inbounds nuw i8, ptr %1, i64 32
  %14 = load ptr, ptr %13, align 8, !tbaa !16
  %15 = tail call ptr %12(ptr noundef %14) #3
  store ptr %15, ptr %6, align 8, !tbaa !8
  %16 = icmp eq ptr %15, null
  br i1 %16, label %26, label %is_temporary_method_store.exit.thread

is_temporary_method_store.exit.thread:            ; preds = %2, %9, %5, %is_temporary_method_store.exit
  %17 = getelementptr inbounds nuw i8, ptr %1, i64 24
  %18 = load ptr, ptr %17, align 8, !tbaa !15
  %19 = getelementptr inbounds nuw i8, ptr %18, i64 8
  %20 = load ptr, ptr %19, align 8, !tbaa !22
  %21 = getelementptr inbounds nuw i8, ptr %1, i64 8
  %22 = load ptr, ptr %21, align 8, !tbaa !8
  %23 = getelementptr inbounds nuw i8, ptr %1, i64 32
  %24 = load ptr, ptr %23, align 8, !tbaa !16
  %25 = tail call i32 %20(ptr noundef %22, ptr noundef %24) #3
  br label %26

26:                                               ; preds = %9, %is_temporary_method_store.exit.thread
  %.0 = phi i32 [ %25, %is_temporary_method_store.exit.thread ], [ 0, %9 ]
  ret i32 %.0
}